; Function Attrs: mustprogress uwtable
define hidden void @_ZN3smt10theory_seq12solution_map9add_trailENS1_10map_updateEP4exprS4_PN18dependency_managerIN25scoped_dependency_managerINS0_10assumptionEE6configEE10dependencyE(ptr noundef nonnull align 8 dereferenceable(104) %this, i32 noundef %op, ptr noundef %l, ptr noundef %r, ptr noundef %d) local_unnamed_addr #3 align 2 {
entry:
  %m_updates = getelementptr inbounds i8, ptr %this, i64 88
  %0 = load ptr, ptr %m_updates, align 8
  %cmp.i = icmp eq ptr %0, null
  br i1 %cmp.i, label %if.then.i, label %lor.lhs.false.i

lor.lhs.false.i:                                  ; preds = %entry
  %arrayidx.i = getelementptr inbounds i8, ptr %0, i64 -4
  %1 = load i32, ptr %arrayidx.i, align 4
  %arrayidx4.i = getelementptr inbounds i8, ptr %0, i64 -8
  %2 = load i32, ptr %arrayidx4.i, align 4
  %cmp5.i = icmp eq i32 %1, %2
  br i1 %cmp5.i, label %if.then.i, label %_ZN6vectorIN3smt10theory_seq12solution_map10map_updateELb0EjE9push_backERKS3_.exit

if.then.i:                                        ; preds = %lor.lhs.false.i, %entry
  tail call void @_ZN6vectorIN3smt10theory_seq12solution_map10map_updateELb0EjE13expand_vectorEv(ptr noundef nonnull align 8 dereferenceable(8) %m_updates)
  %.pre.i = load ptr, ptr %m_updates, align 8
  %arrayidx8.phi.trans.insert.i = getelementptr inbounds i8, ptr %.pre.i, i64 -4
  %.pre1.i = load i32, ptr %arrayidx8.phi.trans.insert.i, align 4
  br label %_ZN6vectorIN3smt10theory_seq12solution_map10map_updateELb0EjE9push_backERKS3_.exit

_ZN6vectorIN3smt10theory_seq12solution_map10map_updateELb0EjE9push_backERKS3_.exit: ; preds = %lor.lhs.false.i, %if.then.i
  %3 = phi i32 [ %.pre1.i, %if.then.i ], [ %1, %lor.lhs.false.i ]
  %4 = phi ptr [ %.pre.i, %if.then.i ], [ %0, %lor.lhs.false.i ]
  %idx.ext.i = zext i32 %3 to i64
  %add.ptr.i = getelementptr inbounds i32, ptr %4, i64 %idx.ext.i
  store i32 %op, ptr %add.ptr.i, align 4
  %5 = load ptr, ptr %m_updates, align 8
  %arrayidx10.i = getelementptr inbounds i8, ptr %5, i64 -4
  %6 = load i32, ptr %arrayidx10.i, align 4
  %inc.i = add i32 %6, 1
  store i32 %inc.i, ptr %arrayidx10.i, align 4
  %tobool.not.i.i.i.i = icmp eq ptr %l, null
  br i1 %tobool.not.i.i.i.i, label %_ZN15ref_vector_coreI4expr19ref_manager_wrapperIS0_11ast_managerEE7inc_refEPS0_.exit.i, label %if.then.i.i.i.i

if.then.i.i.i.i:                                  ; preds = %_ZN6vectorIN3smt10theory_seq12solution_map10map_updateELb0EjE9push_backERKS3_.exit
  %m_ref_count.i.i.i.i.i = getelementptr inbounds i8, ptr %l, i64 8
  %7 = load i32, ptr %m_ref_count.i.i.i.i.i, align 4
  %inc.i.i.i.i.i = add i32 %7, 1
  store i32 %inc.i.i.i.i.i, ptr %m_ref_count.i.i.i.i.i, align 4
  br label %_ZN15ref_vector_coreI4expr19ref_manager_wrapperIS0_11ast_managerEE7inc_refEPS0_.exit.i

_ZN15ref_vector_coreI4expr19ref_manager_wrapperIS0_11ast_managerEE7inc_refEPS0_.exit.i: ; preds = %if.then.i.i.i.i, %_ZN6vectorIN3smt10theory_seq12solution_map10map_updateELb0EjE9push_backERKS3_.exit
  %m_nodes.i = getelementptr inbounds i8, ptr %this, i64 56
  %8 = load ptr, ptr %m_nodes.i, align 8
  %cmp.i.i = icmp eq ptr %8, null
  br i1 %cmp.i.i, label %if.then.i.i, label %lor.lhs.false.i.i

lor.lhs.false.i.i:                                ; preds = %_ZN15ref_vector_coreI4expr19ref_manager_wrapperIS0_11ast_managerEE7inc_refEPS0_.exit.i
  %arrayidx.i.i = getelementptr inbounds i8, ptr %8, i64 -4
  %9 = load i32, ptr %arrayidx.i.i, align 4
  %arrayidx4.i.i = getelementptr inbounds i8, ptr %8, i64 -8
  %10 = load i32, ptr %arrayidx4.i.i, align 4
  %cmp5.i.i = icmp eq i32 %9, %10
  br i1 %cmp5.i.i, label %if.then.i.i, label %_ZN15ref_vector_coreI4expr19ref_manager_wrapperIS0_11ast_managerEE9push_backEPS0_.exit

if.then.i.i:                                      ; preds = %lor.lhs.false.i.i, %_ZN15ref_vector_coreI4expr19ref_manager_wrapperIS0_11ast_managerEE7inc_refEPS0_.exit.i
  tail call void @_ZN6vectorIP4exprLb0EjE13expand_vectorEv(ptr noundef nonnull align 8 dereferenceable(8) %m_nodes.i)
  %.pre.i.i = load ptr, ptr %m_nodes.i, align 8
  %arrayidx8.phi.trans.insert.i.i = getelementptr inbounds i8, ptr %.pre.i.i, i64 -4
  %.pre1.i.i = load i32, ptr %arrayidx8.phi.trans.insert.i.i, align 4
  br label %_ZN15ref_vector_coreI4expr19ref_manager_wrapperIS0_11ast_managerEE9push_backEPS0_.exit

_ZN15ref_vector_coreI4expr19ref_manager_wrapperIS0_11ast_managerEE9push_backEPS0_.exit: ; preds = %lor.lhs.false.i.i, %if.then.i.i
  %11 = phi i32 [ %.pre1.i.i, %if.then.i.i ], [ %9, %lor.lhs.false.i.i ]
  %12 = phi ptr [ %.pre.i.i, %if.then.i.i ], [ %8, %lor.lhs.false.i.i ]
  %idx.ext.i.i = zext i32 %11 to i64
  %add.ptr.i.i = getelementptr inbounds ptr, ptr %12, i64 %idx.ext.i.i
  store ptr %l, ptr %add.ptr.i.i, align 8
  %13 = load ptr, ptr %m_nodes.i, align 8
  %arrayidx10.i.i = getelementptr inbounds i8, ptr %13, i64 -4
  %14 = load i32, ptr %arrayidx10.i.i, align 4
  %inc.i.i = add i32 %14, 1
  store i32 %inc.i.i, ptr %arrayidx10.i.i, align 4
  %tobool.not.i.i.i.i1 = icmp eq ptr %r, null
  br i1 %tobool.not.i.i.i.i1, label %_ZN15ref_vector_coreI4expr19ref_manager_wrapperIS0_11ast_managerEE7inc_refEPS0_.exit.i5, label %if.then.i.i.i.i2

if.then.i.i.i.i2:                                 ; preds = %_ZN15ref_vector_coreI4expr19ref_manager_wrapperIS0_11ast_managerEE9push_backEPS0_.exit
  %m_ref_count.i.i.i.i.i3 = getelementptr inbounds i8, ptr %r, i64 8
  %15 = load i32, ptr %m_ref_count.i.i.i.i.i3, align 4
  %inc.i.i.i.i.i4 = add i32 %15, 1
  store i32 %inc.i.i.i.i.i4, ptr %m_ref_count.i.i.i.i.i3, align 4
  br label %_ZN15ref_vector_coreI4expr19ref_manager_wrapperIS0_11ast_managerEE7inc_refEPS0_.exit.i5

_ZN15ref_vector_coreI4expr19ref_manager_wrapperIS0_11ast_managerEE7inc_refEPS0_.exit.i5: ; preds = %if.then.i.i.i.i2, %_ZN15ref_vector_coreI4expr19ref_manager_wrapperIS0_11ast_managerEE9push_backEPS0_.exit
  %m_nodes.i6 = getelementptr inbounds i8, ptr %this, i64 72
  %16 = load ptr, ptr %m_nodes.i6, align 8
  %cmp.i.i7 = icmp eq ptr %16, null
  br i1 %cmp.i.i7, label %if.then.i.i16, label %lor.lhs.false.i.i8

lor.lhs.false.i.i8:                               ; preds = %_ZN15ref_vector_coreI4expr19ref_manager_wrapperIS0_11ast_managerEE7inc_refEPS0_.exit.i5
  %arrayidx.i.i9 = getelementptr inbounds i8, ptr %16, i64 -4
  %17 = load i32, ptr %arrayidx.i.i9, align 4
  %arrayidx4.i.i10 = getelementptr inbounds i8, ptr %16, i64 -8
  %18 = load i32, ptr %arrayidx4.i.i10, align 4
  %cmp5.i.i11 = icmp eq i32 %17, %18
  br i1 %cmp5.i.i11, label %if.then.i.i16, label %_ZN15ref_vector_coreI4expr19ref_manager_wrapperIS0_11ast_managerEE9push_backEPS0_.exit20

if.then.i.i16:                                    ; preds = %lor.lhs.false.i.i8, %_ZN15ref_vector_coreI4expr19ref_manager_wrapperIS0_11ast_managerEE7inc_refEPS0_.exit.i5
  tail call void @_ZN6vectorIP4exprLb0EjE13expand_vectorEv(ptr noundef nonnull align 8 dereferenceable(8) %m_nodes.i6)
  %.pre.i.i17 = load ptr, ptr %m_nodes.i6, align 8
  %arrayidx8.phi.trans.insert.i.i18 = getelementptr inbounds i8, ptr %.pre.i.i17, i64 -4
  %.pre1.i.i19 = load i32, ptr %arrayidx8.phi.trans.insert.i.i18, align 4
  br label %_ZN15ref_vector_coreI4expr19ref_manager_wrapperIS0_11ast_managerEE9push_backEPS0_.exit20

_ZN15ref_vector_coreI4expr19ref_manager_wrapperIS0_11ast_managerEE9push_backEPS0_.exit20: ; preds = %lor.lhs.false.i.i8, %if.then.i.i16
  %19 = phi i32 [ %.pre1.i.i19, %if.then.i.i16 ], [ %17, %lor.lhs.false.i.i8 ]
  %20 = phi ptr [ %.pre.i.i17, %if.then.i.i16 ], [ %16, %lor.lhs.false.i.i8 ]
  %idx.ext.i.i12 = zext i32 %19 to i64
  %add.ptr.i.i13 = getelementptr inbounds ptr, ptr %20, i64 %idx.ext.i.i12
  store ptr %r, ptr %add.ptr.i.i13, align 8
  %21 = load ptr, ptr %m_nodes.i6, align 8
  %arrayidx10.i.i14 = getelementptr inbounds i8, ptr %21, i64 -4
  %22 = load i32, ptr %arrayidx10.i.i14, align 4
  %inc.i.i15 = add i32 %22, 1
  store i32 %inc.i.i15, ptr %arrayidx10.i.i14, align 4
  %m_deps = getelementptr inbounds i8, ptr %this, i64 80
  %23 = load ptr, ptr %m_deps, align 8
  %cmp.i21 = icmp eq ptr %23, null
  br i1 %cmp.i21, label %if.then.i30, label %lor.lhs.false.i22

lor.lhs.false.i22:                                ; preds = %_ZN15ref_vector_coreI4expr19ref_manager_wrapperIS0_11ast_managerEE9push_backEPS0_.exit20
  %arrayidx.i23 = getelementptr inbounds i8, ptr %23, i64 -4
  %24 = load i32, ptr %arrayidx.i23, align 4
  %arrayidx4.i24 = getelementptr inbounds i8, ptr %23, i64 -8
  %25 = load i32, ptr %arrayidx4.i24, align 4
  %cmp5.i25 = icmp eq i32 %24, %25
  br i1 %cmp5.i25, label %if.then.i30, label %_ZN6vectorIPN18dependency_managerIN25scoped_dependency_managerIN3smt10theory_seq10assumptionEE6configEE10dependencyELb0EjE9push_backERKS9_.exit

if.then.i30:                                      ; preds = %lor.lhs.false.i22, %_ZN15ref_vector_coreI4expr19ref_manager_wrapperIS0_11ast_managerEE9push_backEPS0_.exit20
  tail call void @_ZN6vectorIPN18dependency_managerIN25scoped_dependency_managerIN3smt10theory_seq10assumptionEE6configEE10dependencyELb0EjE13expand_vectorEv(ptr noundef nonnull align 8 dereferenceable(8) %m_deps)
  %.pre.i31 = load ptr, ptr %m_deps, align 8
  %arrayidx8.phi.trans.insert.i32 = getelementptr inbounds i8, ptr %.pre.i31, i64 -4
  %.pre1.i33 = load i32, ptr %arrayidx8.phi.trans.insert.i32, align 4
  br label %_ZN6vectorIPN18dependency_managerIN25scoped_dependency_managerIN3smt10theory_seq10assumptionEE6configEE10dependencyELb0EjE9push_backERKS9_.exit

_ZN6vectorIPN18dependency_managerIN25scoped_dependency_managerIN3smt10theory_seq10assumptionEE6configEE10dependencyELb0EjE9push_backERKS9_.exit: ; preds = %lor.lhs.false.i22, %if.then.i30
  %26 = phi i32 [ %.pre1.i33, %if.then.i30 ], [ %24, %lor.lhs.false.i22 ]
  %27 = phi ptr [ %.pre.i31, %if.then.i30 ], [ %23, %lor.lhs.false.i22 ]
  %idx.ext.i26 = zext i32 %26 to i64
  %add.ptr.i27 = getelementptr inbounds ptr, ptr %27, i64 %idx.ext.i26
  store ptr %d, ptr %add.ptr.i27, align 8
  %28 = load ptr, ptr %m_deps, align 8
  %arrayidx10.i28 = getelementptr inbounds i8, ptr %28, i64 -4
  %29 = load i32, ptr %arrayidx10.i28, align 4
  %inc.i29 = add i32 %29, 1
  store i32 %inc.i29, ptr %arrayidx10.i28, align 4
  ret void
}